; Function Attrs: mustprogress nounwind uwtable
define dso_local noundef zeroext i1 @_ZNK5clang9FieldDecl24isAnonymousStructOrUnionEv(ptr nocapture noundef nonnull readonly align 8 dereferenceable(80) %0) local_unnamed_addr #2 align 2 {
  %2 = getelementptr inbounds nuw i8, ptr %0, i64 28
  %3 = load i32, ptr %2, align 4
  %4 = and i32 %3, 512
  %5 = icmp eq i32 %4, 0
  %6 = getelementptr inbounds nuw i8, ptr %0, i64 40
  %.sroa.0.0.copyload.i = load i64, ptr %6, align 8
  %7 = icmp ne i64 %.sroa.0.0.copyload.i, 0
  %or.cond = select i1 %5, i1 true, i1 %7
  br i1 %or.cond, label %.critedge, label %8

8:                                                ; preds = %1
  %9 = getelementptr inbounds nuw i8, ptr %0, i64 48
  %.sroa.0.0.copyload.i5 = load i64, ptr %9, align 8
  %10 = and i64 %.sroa.0.0.copyload.i5, -16
  %11 = inttoptr i64 %10 to ptr
  %12 = load ptr, ptr %11, align 16
  %13 = getelementptr inbounds nuw i8, ptr %12, i64 8
  %.sroa.0.0.copyload.i.i.i.i = load i64, ptr %13, align 8
  %14 = and i64 %.sroa.0.0.copyload.i.i.i.i, -16
  %15 = inttoptr i64 %14 to ptr
  %16 = load ptr, ptr %15, align 16
  %17 = getelementptr inbounds nuw i8, ptr %16, i64 16
  %18 = load i8, ptr %17, align 16
  %19 = icmp ne i8 %18, 47
  %.not8 = icmp eq ptr %16, null
  %.not = or i1 %.not8, %19
  br i1 %.not, label %.critedge, label %20

20:                                               ; preds = %8
  %21 = tail call noundef ptr @_ZNK5clang7TagType7getDeclEv(ptr noundef nonnull align 16 dereferenceable(32) %16) #27
  %22 = getelementptr inbounds i8, ptr %21, i64 72
  %23 = load i64, ptr %22, align 8
  %24 = and i64 %23, 16777216
  %25 = icmp ne i64 %24, 0
  br label %.critedge

.critedge:                                        ; preds = %8, %1, %20
  %.0 = phi i1 [ %25, %20 ], [ false, %1 ], [ false, %8 ]
  ret i1 %.0
}